target datalayout = "e-m:e-p270:32:32-p271:32:32-p272:64:64-i64:64-i128:128-f80:128-n8:16:32:64-S128"
target triple = "x86_64-pc-linux-gnu"

%struct.strbuf = type { i64, i64, ptr }
%struct.rev_info = type { ptr, %struct.object_array, ptr, %struct.object_array, %struct.rev_cmdline_info, %struct.list_objects_filter_options, %struct.ref_exclusions, ptr, ptr, ptr, %struct.pathspec, i32, i32, i32, i32, i64, i32, i32, %struct.date_mode, i32, i32, i32, i32, ptr, i32, i32, ptr, ptr, i32, ptr, ptr, %struct.ident_split, ptr, i32, ptr, ptr, ptr, i32, i32, i32, ptr, %struct.grep_opt, ptr, i32, i32, i64, i64, i64, i32, i32, ptr, ptr, ptr, %struct.diff_options, %struct.diff_options, ptr, %struct.decoration, %struct.decoration, %struct.decoration, %struct.display_notes_opt, ptr, ptr, ptr, ptr, ptr, i32, ptr, i32, i32, i32, %struct.decoration, ptr, ptr, ptr, ptr, ptr, ptr, ptr, i32, ptr, i32, ptr, %struct.oidset }
%struct.object_array = type { i32, i32, ptr }
%struct.rev_cmdline_info = type { i32, i32, ptr }
%struct.list_objects_filter_options = type { %struct.strbuf, i32, i8, ptr, i64, i64, i32, i64, i64, ptr }
%struct.ref_exclusions = type { %struct.string_list, %struct.strvec, i8 }
%struct.string_list = type { ptr, i64, i64, i8, ptr }
%struct.strvec = type { ptr, i64, i64 }
%struct.pathspec = type { i32, i8, i32, i32, ptr }
%struct.date_mode = type { i32, i32, ptr }
%struct.ident_split = type { ptr, ptr, ptr, ptr, ptr, ptr, ptr, ptr }
%struct.grep_opt = type { ptr, ptr, ptr, ptr, ptr, ptr, i32, i32, i32, i32, i32, i32, i32, i32, i32, i32, i32, i32, i32, i32, i32, i32, i32, i32, i32, i32, i32, i32, i32, i32, i32, i32, [9 x [75 x i8]], i32, i32, i32, i32, i32, i32, i32, ptr, ptr, ptr }
%struct.diff_options = type { ptr, ptr, i32, i32, ptr, i32, ptr, i64, i64, ptr, ptr, ptr, ptr, %struct.diff_flags, i32, i32, i32, i32, i32, i32, i32, i32, i32, i32, i32, i32, i32, i32, i32, i32, i32, i32, i32, i32, i32, i32, ptr, i32, ptr, i32, i32, ptr, i64, i64, i32, i32, i32, i32, ptr, i32, i32, ptr, i32, i32, ptr, ptr, i32, [3 x i8], %struct.pathspec, ptr, ptr, ptr, ptr, ptr, ptr, ptr, ptr, i32, ptr, i32, i32, ptr, ptr, i32 }
%struct.diff_flags = type { i32, i32, i32, i32, i32, i32, i32, i32, i32, i32, i32, i32, i32, i32, i32, i32, i32, i32, i32, i32, i32, i32, i32, i32, i32, i32, i32, i32, i32, i32, i32, i32, i32, i32, i32 }
%struct.display_notes_opt = type { i32, %struct.string_list }
%struct.decoration = type { ptr, i32, i32, ptr }
%struct.oidset = type { %struct.kh_oid_set }
%struct.kh_oid_set = type { i32, i32, i32, i32, ptr, ptr, ptr }

@.str.2 = private unnamed_addr constant [11 x i8] c"diff-lib.c\00", align 1

; Function Attrs: nounwind uwtable
define dso_local i32 @do_diff_cache(ptr noundef %0, ptr noundef %1) #0 {
  %3 = alloca ptr, align 8
  %4 = alloca ptr, align 8
  %5 = alloca %struct.rev_info, align 8
  store ptr %0, ptr %3, align 8, !tbaa !120
  store ptr %1, ptr %4, align 8, !tbaa !129
  call void @llvm.lifetime.start.p0(i64 3008, ptr %5) #11
  %6 = load ptr, ptr %4, align 8, !tbaa !129
  %7 = getelementptr inbounds nuw %struct.diff_options, ptr %6, i32 0, i32 71
  %8 = load ptr, ptr %7, align 8, !tbaa !132
  call void @repo_init_revisions(ptr noundef %8, ptr noundef %5, ptr noundef null)
  %9 = getelementptr inbounds nuw %struct.rev_info, ptr %5, i32 0, i32 10
  %10 = load ptr, ptr %4, align 8, !tbaa !129
  %11 = getelementptr inbounds nuw %struct.diff_options, ptr %10, i32 0, i32 58
  call void @copy_pathspec(ptr noundef %9, ptr noundef %11)
  %12 = getelementptr inbounds nuw %struct.rev_info, ptr %5, i32 0, i32 53
  call void @diff_free(ptr noundef %12)
  %13 = getelementptr inbounds nuw %struct.rev_info, ptr %5, i32 0, i32 53
  %14 = load ptr, ptr %4, align 8, !tbaa !129
  call void @llvm.memcpy.p0.p0.i64(ptr align 8 %13, ptr align 8 %14, i64 592, i1 false), !tbaa.struct !181
  %15 = getelementptr inbounds nuw %struct.rev_info, ptr %5, i32 0, i32 53
  %16 = getelementptr inbounds nuw %struct.diff_options, ptr %15, i32 0, i32 73
  store i32 1, ptr %16, align 8, !tbaa !190
  %17 = load ptr, ptr %3, align 8, !tbaa !120
  %18 = call i32 @diff_cache(ptr noundef %5, ptr noundef %17, ptr noundef null, i32 noundef 1)
  %19 = icmp ne i32 %18, 0
  br i1 %19, label %20, label %22

20:                                               ; preds = %2
  %21 = call i32 @common_exit(ptr noundef @.str.2, i32 noundef 658, i32 noundef 128)
  call void @exit(i32 noundef %21) #15
  unreachable

22:                                               ; preds = %2
  call void @release_revisions(ptr noundef %5)
  call void @llvm.lifetime.end.p0(i64 3008, ptr %5) #11
  ret i32 0
}