; Function Attrs: nounwind uwtable
define dso_local noundef i32 @do_diff_cache(ptr noundef %0, ptr noundef %1) local_unnamed_addr #0 {
  %3 = alloca %struct.rev_info, align 8
  call void @llvm.lifetime.start.p0(i64 3008, ptr nonnull %3) #15
  %4 = getelementptr inbounds nuw i8, ptr %1, i64 568
  %5 = load ptr, ptr %4, align 8, !tbaa !110
  call void @repo_init_revisions(ptr noundef %5, ptr noundef nonnull %3, ptr noundef null) #15
  %6 = getelementptr inbounds nuw i8, ptr %3, i64 248
  %7 = getelementptr inbounds nuw i8, ptr %1, i64 456
  call void @copy_pathspec(ptr noundef nonnull %6, ptr noundef nonnull %7) #15
  %8 = getelementptr inbounds nuw i8, ptr %3, i64 1472
  call void @diff_free(ptr noundef nonnull %8) #15
  call void @llvm.memcpy.p0.p0.i64(ptr noundef nonnull align 8 dereferenceable(592) %8, ptr noundef nonnull align 8 dereferenceable(592) %1, i64 592, i1 false), !tbaa.struct !157
  %9 = getelementptr inbounds nuw i8, ptr %3, i64 2056
  store i32 1, ptr %9, align 8, !tbaa !168
  %10 = call fastcc i32 @diff_cache(ptr noundef nonnull %3, ptr noundef %0, ptr noundef null, i32 noundef 1)
  %.not = icmp eq i32 %10, 0
  br i1 %.not, label %13, label %11

11:                                               ; preds = %2
  %12 = call i32 @common_exit(ptr noundef nonnull @.str.2, i32 noundef 658, i32 noundef 128) #15
  call void @exit(i32 noundef %12) #19
  unreachable

13:                                               ; preds = %2
  call void @release_revisions(ptr noundef nonnull %3) #15
  call void @llvm.lifetime.end.p0(i64 3008, ptr nonnull %3) #15
  ret i32 0
}